target datalayout = "e-m:e-p270:32:32-p271:32:32-p272:64:64-i64:64-i128:128-f80:128-n8:16:32:64-S128"
target triple = "x86_64-pc-linux-gnu"

%struct.IDAMemRec = type { double, ptr, ptr, i32, double, double, ptr, i32, ptr, ptr, i32, ptr, ptr, i32, i32, double, double, ptr, i32, i32, i32, ptr, ptr, i32, ptr, ptr, ptr, i32, double, i32, i32, double, ptr, ptr, i32, ptr, ptr, i32, i32, i32, double, ptr, ptr, [6 x ptr], [6 x double], [6 x double], [6 x double], [6 x double], [6 x double], ptr, ptr, ptr, ptr, ptr, ptr, ptr, ptr, ptr, ptr, ptr, ptr, ptr, ptr, ptr, [6 x ptr], ptr, ptr, ptr, ptr, [6 x ptr], ptr, ptr, ptr, ptr, ptr, ptr, ptr, ptr, ptr, ptr, ptr, ptr, ptr, ptr, [6 x ptr], ptr, ptr, ptr, ptr, ptr, double, ptr, ptr, i32, i32, i32, i32, i32, i32, i32, double, double, double, i32, double, i32, i32, i32, i32, double, double, double, double, double, double, double, double, double, double, double, double, double, double, i32, i32, i32, i32, i32, i64, double, i32, i64, i64, i64, i64, i64, i64, i64, i64, i64, i64, i64, i64, i64, i64, i64, i64, i64, i64, i64, i64, i64, i64, i64, i64, ptr, ptr, ptr, i32, i32, i32, i32, i32, i32, i32, i32, i32, i32, i32, i32, i32, ptr, ptr, ptr, ptr, ptr, ptr, i32, i32, i32, i32, i32, i32, double, double, double, ptr, i32, ptr, ptr, double, double, double, ptr, ptr, ptr, double, double, i32, i32, i64, ptr, i32, i32, ptr, i32 }
%struct._generic_N_Vector = type { ptr, ptr }
%struct._generic_N_Vector_Ops = type { ptr, ptr, ptr, ptr, ptr, ptr, ptr, ptr, ptr, ptr, ptr, ptr, ptr, ptr, ptr, ptr, ptr, ptr, ptr, ptr, ptr, ptr, ptr, ptr, ptr }
%struct.IDASpilsMemRec = type { i32, i32, double, i32, i32, double, double, double, i64, i64, i64, i64, i64, i64, i64, i64, i64, i64, i64, i64, ptr, ptr, ptr, ptr, ptr, ptr, ptr, i64, ptr, ptr, ptr, ptr, i32, ptr, ptr }

@.str = private unnamed_addr constant [11 x i8] c"IDASPTFQMR\00", align 1
@.str.1 = private unnamed_addr constant [11 x i8] c"IDASptfqmr\00", align 1
@.str.2 = private unnamed_addr constant [27 x i8] c"Integrator memory is NULL.\00", align 1
@.str.3 = private unnamed_addr constant [48 x i8] c"A required vector operation is not implemented.\00", align 1
@.str.4 = private unnamed_addr constant [25 x i8] c"A memory request failed.\00", align 1

; Function Attrs: nounwind uwtable
define i32 @IDASptfqmr(ptr noundef %0, i32 noundef %1) #0 {
  %3 = alloca i32, align 4
  %4 = alloca ptr, align 8
  %5 = alloca i32, align 4
  %6 = alloca ptr, align 8
  %7 = alloca ptr, align 8
  %8 = alloca ptr, align 8
  %9 = alloca i32, align 4
  %10 = alloca i32, align 4
  %11 = alloca i32, align 4
  store ptr %0, ptr %4, align 8, !tbaa !3
  store i32 %1, ptr %5, align 4, !tbaa !7
  call void @llvm.lifetime.start.p0(i64 8, ptr %6) #5
  call void @llvm.lifetime.start.p0(i64 8, ptr %7) #5
  call void @llvm.lifetime.start.p0(i64 8, ptr %8) #5
  call void @llvm.lifetime.start.p0(i64 4, ptr %9) #5
  call void @llvm.lifetime.start.p0(i64 4, ptr %10) #5
  %12 = load ptr, ptr %4, align 8, !tbaa !3
  %13 = icmp eq ptr %12, null
  br i1 %13, label %14, label %15

14:                                               ; preds = %2
  call void (ptr, i32, ptr, ptr, ptr, ...) @IDAProcessError(ptr noundef null, i32 noundef -1, ptr noundef @.str, ptr noundef @.str.1, ptr noundef @.str.2)
  store i32 -1, ptr %3, align 4
  store i32 1, ptr %11, align 4
  br label %176

15:                                               ; preds = %2
  %16 = load ptr, ptr %4, align 8, !tbaa !3
  store ptr %16, ptr %6, align 8, !tbaa !9
  %17 = load ptr, ptr %6, align 8, !tbaa !9
  %18 = getelementptr inbounds nuw %struct.IDAMemRec, ptr %17, i32 0, i32 58
  %19 = load ptr, ptr %18, align 8, !tbaa !11
  %20 = getelementptr inbounds nuw %struct._generic_N_Vector, ptr %19, i32 0, i32 1
  %21 = load ptr, ptr %20, align 8, !tbaa !21
  %22 = getelementptr inbounds nuw %struct._generic_N_Vector_Ops, ptr %21, i32 0, i32 14
  %23 = load ptr, ptr %22, align 8, !tbaa !24
  %24 = icmp eq ptr %23, null
  br i1 %24, label %25, label %26

25:                                               ; preds = %15
  call void (ptr, i32, ptr, ptr, ptr, ...) @IDAProcessError(ptr noundef null, i32 noundef -3, ptr noundef @.str, ptr noundef @.str.1, ptr noundef @.str.3)
  store i32 -3, ptr %3, align 4
  store i32 1, ptr %11, align 4
  br label %176

26:                                               ; preds = %15
  %27 = load ptr, ptr %6, align 8, !tbaa !9
  %28 = getelementptr inbounds nuw %struct.IDAMemRec, ptr %27, i32 0, i32 175
  %29 = load ptr, ptr %28, align 8, !tbaa !26
  %30 = icmp ne ptr %29, null
  br i1 %30, label %31, label %37

31:                                               ; preds = %26
  %32 = load ptr, ptr %6, align 8, !tbaa !9
  %33 = getelementptr inbounds nuw %struct.IDAMemRec, ptr %32, i32 0, i32 175
  %34 = load ptr, ptr %33, align 8, !tbaa !26
  %35 = load ptr, ptr %4, align 8, !tbaa !3
  %36 = call i32 %34(ptr noundef %35)
  store i32 %36, ptr %9, align 4, !tbaa !7
  br label %37

37:                                               ; preds = %31, %26
  %38 = load ptr, ptr %6, align 8, !tbaa !9
  %39 = getelementptr inbounds nuw %struct.IDAMemRec, ptr %38, i32 0, i32 171
  store ptr @IDASptfqmrInit, ptr %39, align 8, !tbaa !27
  %40 = load ptr, ptr %6, align 8, !tbaa !9
  %41 = getelementptr inbounds nuw %struct.IDAMemRec, ptr %40, i32 0, i32 172
  store ptr @IDASptfqmrSetup, ptr %41, align 8, !tbaa !28
  %42 = load ptr, ptr %6, align 8, !tbaa !9
  %43 = getelementptr inbounds nuw %struct.IDAMemRec, ptr %42, i32 0, i32 173
  store ptr @IDASptfqmrSolve, ptr %43, align 8, !tbaa !29
  %44 = load ptr, ptr %6, align 8, !tbaa !9
  %45 = getelementptr inbounds nuw %struct.IDAMemRec, ptr %44, i32 0, i32 174
  store ptr @IDASptfqmrPerf, ptr %45, align 8, !tbaa !30
  %46 = load ptr, ptr %6, align 8, !tbaa !9
  %47 = getelementptr inbounds nuw %struct.IDAMemRec, ptr %46, i32 0, i32 175
  store ptr @IDASptfqmrFree, ptr %47, align 8, !tbaa !26
  store ptr null, ptr %7, align 8, !tbaa !31
  %48 = call noalias ptr @malloc(i64 noundef 264) #6
  store ptr %48, ptr %7, align 8, !tbaa !31
  %49 = load ptr, ptr %7, align 8, !tbaa !31
  %50 = icmp eq ptr %49, null
  br i1 %50, label %51, label %52

51:                                               ; preds = %37
  call void (ptr, i32, ptr, ptr, ptr, ...) @IDAProcessError(ptr noundef null, i32 noundef -4, ptr noundef @.str, ptr noundef @.str.1, ptr noundef @.str.4)
  store i32 -4, ptr %3, align 4
  store i32 1, ptr %11, align 4
  br label %176

52:                                               ; preds = %37
  %53 = load ptr, ptr %7, align 8, !tbaa !31
  %54 = getelementptr inbounds nuw %struct.IDASpilsMemRec, ptr %53, i32 0, i32 0
  store i32 3, ptr %54, align 8, !tbaa !33
  %55 = load i32, ptr %5, align 4, !tbaa !7
  %56 = icmp sle i32 %55, 0
  br i1 %56, label %57, label %58

57:                                               ; preds = %52
  br label %60

58:                                               ; preds = %52
  %59 = load i32, ptr %5, align 4, !tbaa !7
  br label %60

60:                                               ; preds = %58, %57
  %61 = phi i32 [ 5, %57 ], [ %59, %58 ]
  store i32 %61, ptr %10, align 4, !tbaa !7
  %62 = load i32, ptr %10, align 4, !tbaa !7
  %63 = load ptr, ptr %7, align 8, !tbaa !31
  %64 = getelementptr inbounds nuw %struct.IDASpilsMemRec, ptr %63, i32 0, i32 3
  store i32 %62, ptr %64, align 8, !tbaa !35
  %65 = load ptr, ptr %7, align 8, !tbaa !31
  %66 = getelementptr inbounds nuw %struct.IDASpilsMemRec, ptr %65, i32 0, i32 32
  store i32 1, ptr %66, align 8, !tbaa !36
  %67 = load ptr, ptr %7, align 8, !tbaa !31
  %68 = getelementptr inbounds nuw %struct.IDASpilsMemRec, ptr %67, i32 0, i32 33
  store ptr null, ptr %68, align 8, !tbaa !37
  %69 = load ptr, ptr %7, align 8, !tbaa !31
  %70 = getelementptr inbounds nuw %struct.IDASpilsMemRec, ptr %69, i32 0, i32 34
  store ptr null, ptr %70, align 8, !tbaa !38
  %71 = load ptr, ptr %7, align 8, !tbaa !31
  %72 = getelementptr inbounds nuw %struct.IDASpilsMemRec, ptr %71, i32 0, i32 28
  store ptr null, ptr %72, align 8, !tbaa !39
  %73 = load ptr, ptr %7, align 8, !tbaa !31
  %74 = getelementptr inbounds nuw %struct.IDASpilsMemRec, ptr %73, i32 0, i32 29
  store ptr null, ptr %74, align 8, !tbaa !40
  %75 = load ptr, ptr %7, align 8, !tbaa !31
  %76 = getelementptr inbounds nuw %struct.IDASpilsMemRec, ptr %75, i32 0, i32 30
  store ptr null, ptr %76, align 8, !tbaa !41
  %77 = load ptr, ptr %6, align 8, !tbaa !9
  %78 = getelementptr inbounds nuw %struct.IDAMemRec, ptr %77, i32 0, i32 2
  %79 = load ptr, ptr %78, align 8, !tbaa !42
  %80 = load ptr, ptr %7, align 8, !tbaa !31
  %81 = getelementptr inbounds nuw %struct.IDASpilsMemRec, ptr %80, i32 0, i32 31
  store ptr %79, ptr %81, align 8, !tbaa !43
  %82 = load ptr, ptr %7, align 8, !tbaa !31
  %83 = getelementptr inbounds nuw %struct.IDASpilsMemRec, ptr %82, i32 0, i32 5
  store double 5.000000e-02, ptr %83, align 8, !tbaa !44
  %84 = load ptr, ptr %7, align 8, !tbaa !31
  %85 = getelementptr inbounds nuw %struct.IDASpilsMemRec, ptr %84, i32 0, i32 6
  store double 1.000000e+00, ptr %85, align 8, !tbaa !45
  %86 = load ptr, ptr %7, align 8, !tbaa !31
  %87 = getelementptr inbounds nuw %struct.IDASpilsMemRec, ptr %86, i32 0, i32 27
  store i64 0, ptr %87, align 8, !tbaa !46
  %88 = load ptr, ptr %6, align 8, !tbaa !9
  %89 = getelementptr inbounds nuw %struct.IDAMemRec, ptr %88, i32 0, i32 179
  store i32 0, ptr %89, align 8, !tbaa !47
  %90 = load ptr, ptr %6, align 8, !tbaa !9
  %91 = getelementptr inbounds nuw %struct.IDAMemRec, ptr %90, i32 0, i32 58
  %92 = load ptr, ptr %91, align 8, !tbaa !11
  %93 = call ptr @N_VClone(ptr noundef %92)
  %94 = load ptr, ptr %7, align 8, !tbaa !31
  %95 = getelementptr inbounds nuw %struct.IDASpilsMemRec, ptr %94, i32 0, i32 20
  store ptr %93, ptr %95, align 8, !tbaa !48
  %96 = load ptr, ptr %7, align 8, !tbaa !31
  %97 = getelementptr inbounds nuw %struct.IDASpilsMemRec, ptr %96, i32 0, i32 20
  %98 = load ptr, ptr %97, align 8, !tbaa !48
  %99 = icmp eq ptr %98, null
  br i1 %99, label %100, label %102

100:                                              ; preds = %60
  call void (ptr, i32, ptr, ptr, ptr, ...) @IDAProcessError(ptr noundef null, i32 noundef -4, ptr noundef @.str, ptr noundef @.str.1, ptr noundef @.str.4)
  %101 = load ptr, ptr %7, align 8, !tbaa !31
  call void @free(ptr noundef %101) #5
  store ptr null, ptr %7, align 8, !tbaa !31
  store i32 -4, ptr %3, align 4
  store i32 1, ptr %11, align 4
  br label %176

102:                                              ; preds = %60
  %103 = load ptr, ptr %6, align 8, !tbaa !9
  %104 = getelementptr inbounds nuw %struct.IDAMemRec, ptr %103, i32 0, i32 58
  %105 = load ptr, ptr %104, align 8, !tbaa !11
  %106 = call ptr @N_VClone(ptr noundef %105)
  %107 = load ptr, ptr %7, align 8, !tbaa !31
  %108 = getelementptr inbounds nuw %struct.IDASpilsMemRec, ptr %107, i32 0, i32 21
  store ptr %106, ptr %108, align 8, !tbaa !49
  %109 = load ptr, ptr %7, align 8, !tbaa !31
  %110 = getelementptr inbounds nuw %struct.IDASpilsMemRec, ptr %109, i32 0, i32 21
  %111 = load ptr, ptr %110, align 8, !tbaa !49
  %112 = icmp eq ptr %111, null
  br i1 %112, label %113, label %118

113:                                              ; preds = %102
  call void (ptr, i32, ptr, ptr, ptr, ...) @IDAProcessError(ptr noundef null, i32 noundef -4, ptr noundef @.str, ptr noundef @.str.1, ptr noundef @.str.4)
  %114 = load ptr, ptr %7, align 8, !tbaa !31
  %115 = getelementptr inbounds nuw %struct.IDASpilsMemRec, ptr %114, i32 0, i32 20
  %116 = load ptr, ptr %115, align 8, !tbaa !48
  call void @N_VDestroy(ptr noundef %116)
  %117 = load ptr, ptr %7, align 8, !tbaa !31
  call void @free(ptr noundef %117) #5
  store ptr null, ptr %7, align 8, !tbaa !31
  store i32 -4, ptr %3, align 4
  store i32 1, ptr %11, align 4
  br label %176

118:                                              ; preds = %102
  %119 = load ptr, ptr %6, align 8, !tbaa !9
  %120 = getelementptr inbounds nuw %struct.IDAMemRec, ptr %119, i32 0, i32 58
  %121 = load ptr, ptr %120, align 8, !tbaa !11
  %122 = call ptr @N_VClone(ptr noundef %121)
  %123 = load ptr, ptr %7, align 8, !tbaa !31
  %124 = getelementptr inbounds nuw %struct.IDASpilsMemRec, ptr %123, i32 0, i32 22
  store ptr %122, ptr %124, align 8, !tbaa !50
  %125 = load ptr, ptr %7, align 8, !tbaa !31
  %126 = getelementptr inbounds nuw %struct.IDASpilsMemRec, ptr %125, i32 0, i32 22
  %127 = load ptr, ptr %126, align 8, !tbaa !50
  %128 = icmp eq ptr %127, null
  br i1 %128, label %129, label %137

129:                                              ; preds = %118
  call void (ptr, i32, ptr, ptr, ptr, ...) @IDAProcessError(ptr noundef null, i32 noundef -4, ptr noundef @.str, ptr noundef @.str.1, ptr noundef @.str.4)
  %130 = load ptr, ptr %7, align 8, !tbaa !31
  %131 = getelementptr inbounds nuw %struct.IDASpilsMemRec, ptr %130, i32 0, i32 20
  %132 = load ptr, ptr %131, align 8, !tbaa !48
  call void @N_VDestroy(ptr noundef %132)
  %133 = load ptr, ptr %7, align 8, !tbaa !31
  %134 = getelementptr inbounds nuw %struct.IDASpilsMemRec, ptr %133, i32 0, i32 21
  %135 = load ptr, ptr %134, align 8, !tbaa !49
  call void @N_VDestroy(ptr noundef %135)
  %136 = load ptr, ptr %7, align 8, !tbaa !31
  call void @free(ptr noundef %136) #5
  store ptr null, ptr %7, align 8, !tbaa !31
  store i32 -4, ptr %3, align 4
  store i32 1, ptr %11, align 4
  br label %176

137:                                              ; preds = %118
  %138 = load ptr, ptr %7, align 8, !tbaa !31
  %139 = getelementptr inbounds nuw %struct.IDASpilsMemRec, ptr %138, i32 0, i32 20
  %140 = load ptr, ptr %139, align 8, !tbaa !48
  call void @N_VConst(double noundef 1.000000e+00, ptr noundef %140)
  %141 = load ptr, ptr %7, align 8, !tbaa !31
  %142 = getelementptr inbounds nuw %struct.IDASpilsMemRec, ptr %141, i32 0, i32 20
  %143 = load ptr, ptr %142, align 8, !tbaa !48
  %144 = load ptr, ptr %7, align 8, !tbaa !31
  %145 = getelementptr inbounds nuw %struct.IDASpilsMemRec, ptr %144, i32 0, i32 20
  %146 = load ptr, ptr %145, align 8, !tbaa !48
  %147 = call double @N_VDotProd(ptr noundef %143, ptr noundef %146)
  %148 = call double @SUNRsqrt(double noundef %147)
  %149 = load ptr, ptr %7, align 8, !tbaa !31
  %150 = getelementptr inbounds nuw %struct.IDASpilsMemRec, ptr %149, i32 0, i32 2
  store double %148, ptr %150, align 8, !tbaa !51
  store ptr null, ptr %8, align 8, !tbaa !3
  %151 = load i32, ptr %10, align 4, !tbaa !7
  %152 = load ptr, ptr %6, align 8, !tbaa !9
  %153 = getelementptr inbounds nuw %struct.IDAMemRec, ptr %152, i32 0, i32 58
  %154 = load ptr, ptr %153, align 8, !tbaa !11
  %155 = call ptr @SptfqmrMalloc(i32 noundef %151, ptr noundef %154)
  store ptr %155, ptr %8, align 8, !tbaa !3
  %156 = load ptr, ptr %8, align 8, !tbaa !3
  %157 = icmp eq ptr %156, null
  br i1 %157, label %158, label %169

158:                                              ; preds = %137
  call void (ptr, i32, ptr, ptr, ptr, ...) @IDAProcessError(ptr noundef null, i32 noundef -4, ptr noundef @.str, ptr noundef @.str.1, ptr noundef @.str.4)
  %159 = load ptr, ptr %7, align 8, !tbaa !31
  %160 = getelementptr inbounds nuw %struct.IDASpilsMemRec, ptr %159, i32 0, i32 20
  %161 = load ptr, ptr %160, align 8, !tbaa !48
  call void @N_VDestroy(ptr noundef %161)
  %162 = load ptr, ptr %7, align 8, !tbaa !31
  %163 = getelementptr inbounds nuw %struct.IDASpilsMemRec, ptr %162, i32 0, i32 21
  %164 = load ptr, ptr %163, align 8, !tbaa !49
  call void @N_VDestroy(ptr noundef %164)
  %165 = load ptr, ptr %7, align 8, !tbaa !31
  %166 = getelementptr inbounds nuw %struct.IDASpilsMemRec, ptr %165, i32 0, i32 22
  %167 = load ptr, ptr %166, align 8, !tbaa !50
  call void @N_VDestroy(ptr noundef %167)
  %168 = load ptr, ptr %7, align 8, !tbaa !31
  call void @free(ptr noundef %168) #5
  store ptr null, ptr %7, align 8, !tbaa !31
  store i32 -4, ptr %3, align 4
  store i32 1, ptr %11, align 4
  br label %176

169:                                              ; preds = %137
  %170 = load ptr, ptr %8, align 8, !tbaa !3
  %171 = load ptr, ptr %7, align 8, !tbaa !31
  %172 = getelementptr inbounds nuw %struct.IDASpilsMemRec, ptr %171, i32 0, i32 26
  store ptr %170, ptr %172, align 8, !tbaa !52
  %173 = load ptr, ptr %7, align 8, !tbaa !31
  %174 = load ptr, ptr %6, align 8, !tbaa !9
  %175 = getelementptr inbounds nuw %struct.IDAMemRec, ptr %174, i32 0, i32 176
  store ptr %173, ptr %175, align 8, !tbaa !53
  store i32 0, ptr %3, align 4
  store i32 1, ptr %11, align 4
  br label %176

176:                                              ; preds = %169, %158, %129, %113, %100, %51, %25, %14
  call void @llvm.lifetime.end.p0(i64 4, ptr %10) #5
  call void @llvm.lifetime.end.p0(i64 4, ptr %9) #5
  call void @llvm.lifetime.end.p0(i64 8, ptr %8) #5
  call void @llvm.lifetime.end.p0(i64 8, ptr %7) #5
  call void @llvm.lifetime.end.p0(i64 8, ptr %6) #5
  %177 = load i32, ptr %3, align 4
  ret i32 %177
}