; Function Attrs: nounwind uwtable
define range(i32 -4, 1) i32 @IDASptfqmr(ptr noundef %0, i32 noundef %1) local_unnamed_addr #0 {
  %3 = icmp eq ptr %0, null
  br i1 %3, label %4, label %5

4:                                                ; preds = %2
  tail call void (ptr, i32, ptr, ptr, ptr, ...) @IDAProcessError(ptr noundef null, i32 noundef -1, ptr noundef nonnull @.str, ptr noundef nonnull @.str.1, ptr noundef nonnull @.str.2) #8
  br label %69

5:                                                ; preds = %2
  %6 = getelementptr inbounds nuw i8, ptr %0, i64 672
  %7 = load ptr, ptr %6, align 8, !tbaa !3
  %8 = getelementptr inbounds nuw i8, ptr %7, i64 8
  %9 = load ptr, ptr %8, align 8, !tbaa !17
  %10 = getelementptr inbounds nuw i8, ptr %9, i64 112
  %11 = load ptr, ptr %10, align 8, !tbaa !20
  %12 = icmp eq ptr %11, null
  br i1 %12, label %13, label %14

13:                                               ; preds = %5
  tail call void (ptr, i32, ptr, ptr, ptr, ...) @IDAProcessError(ptr noundef null, i32 noundef -3, ptr noundef nonnull @.str, ptr noundef nonnull @.str.1, ptr noundef nonnull @.str.3) #8
  br label %69

14:                                               ; preds = %5
  %15 = getelementptr inbounds nuw i8, ptr %0, i64 1624
  %16 = load ptr, ptr %15, align 8, !tbaa !22
  %.not = icmp eq ptr %16, null
  br i1 %.not, label %19, label %17

17:                                               ; preds = %14
  %18 = tail call i32 %16(ptr noundef nonnull %0) #8
  br label %19

19:                                               ; preds = %17, %14
  %20 = getelementptr inbounds nuw i8, ptr %0, i64 1592
  store ptr @IDASptfqmrInit, ptr %20, align 8, !tbaa !23
  %21 = getelementptr inbounds nuw i8, ptr %0, i64 1600
  store ptr @IDASptfqmrSetup, ptr %21, align 8, !tbaa !24
  %22 = getelementptr inbounds nuw i8, ptr %0, i64 1608
  store ptr @IDASptfqmrSolve, ptr %22, align 8, !tbaa !25
  %23 = getelementptr inbounds nuw i8, ptr %0, i64 1616
  store ptr @IDASptfqmrPerf, ptr %23, align 8, !tbaa !26
  store ptr @IDASptfqmrFree, ptr %15, align 8, !tbaa !22
  %24 = tail call noalias dereferenceable_or_null(264) ptr @malloc(i64 noundef 264) #9
  %25 = icmp eq ptr %24, null
  br i1 %25, label %26, label %27

26:                                               ; preds = %19
  tail call void (ptr, i32, ptr, ptr, ptr, ...) @IDAProcessError(ptr noundef null, i32 noundef -4, ptr noundef nonnull @.str, ptr noundef nonnull @.str.1, ptr noundef nonnull @.str.4) #8
  br label %69

27:                                               ; preds = %19
  store i32 3, ptr %24, align 8, !tbaa !27
  %28 = icmp slt i32 %1, 1
  %29 = select i1 %28, i32 5, i32 %1
  %30 = getelementptr inbounds nuw i8, ptr %24, i64 16
  store i32 %29, ptr %30, align 8, !tbaa !29
  %31 = getelementptr inbounds nuw i8, ptr %24, i64 240
  store i32 1, ptr %31, align 8, !tbaa !30
  %32 = getelementptr inbounds nuw i8, ptr %24, i64 248
  %33 = getelementptr inbounds nuw i8, ptr %24, i64 208
  %34 = getelementptr inbounds nuw i8, ptr %0, i64 16
  tail call void @llvm.memset.p0.i64(ptr noundef nonnull align 8 dereferenceable(24) %33, i8 0, i64 24, i1 false)
  tail call void @llvm.memset.p0.i64(ptr noundef nonnull align 8 dereferenceable(16) %32, i8 0, i64 16, i1 false)
  %35 = load ptr, ptr %34, align 8, !tbaa !31
  %36 = getelementptr inbounds nuw i8, ptr %24, i64 232
  store ptr %35, ptr %36, align 8, !tbaa !32
  %37 = getelementptr inbounds nuw i8, ptr %24, i64 24
  store double 5.000000e-02, ptr %37, align 8, !tbaa !33
  %38 = getelementptr inbounds nuw i8, ptr %24, i64 32
  store double 1.000000e+00, ptr %38, align 8, !tbaa !34
  %39 = getelementptr inbounds nuw i8, ptr %24, i64 200
  store i64 0, ptr %39, align 8, !tbaa !35
  %40 = getelementptr inbounds nuw i8, ptr %0, i64 1648
  store i32 0, ptr %40, align 8, !tbaa !36
  %41 = load ptr, ptr %6, align 8, !tbaa !3
  %42 = tail call ptr @N_VClone(ptr noundef %41) #8
  %43 = getelementptr inbounds nuw i8, ptr %24, i64 144
  store ptr %42, ptr %43, align 8, !tbaa !37
  %44 = icmp eq ptr %42, null
  br i1 %44, label %45, label %46

45:                                               ; preds = %27
  tail call void (ptr, i32, ptr, ptr, ptr, ...) @IDAProcessError(ptr noundef null, i32 noundef -4, ptr noundef nonnull @.str, ptr noundef nonnull @.str.1, ptr noundef nonnull @.str.4) #8
  tail call void @free(ptr noundef nonnull %24) #8
  br label %69

46:                                               ; preds = %27
  %47 = load ptr, ptr %6, align 8, !tbaa !3
  %48 = tail call ptr @N_VClone(ptr noundef %47) #8
  %49 = getelementptr inbounds nuw i8, ptr %24, i64 152
  store ptr %48, ptr %49, align 8, !tbaa !38
  %50 = icmp eq ptr %48, null
  br i1 %50, label %51, label %52

51:                                               ; preds = %46
  tail call void (ptr, i32, ptr, ptr, ptr, ...) @IDAProcessError(ptr noundef null, i32 noundef -4, ptr noundef nonnull @.str, ptr noundef nonnull @.str.1, ptr noundef nonnull @.str.4) #8
  tail call void @N_VDestroy(ptr noundef nonnull %42) #8
  tail call void @free(ptr noundef nonnull %24) #8
  br label %69

52:                                               ; preds = %46
  %53 = load ptr, ptr %6, align 8, !tbaa !3
  %54 = tail call ptr @N_VClone(ptr noundef %53) #8
  %55 = getelementptr inbounds nuw i8, ptr %24, i64 160
  store ptr %54, ptr %55, align 8, !tbaa !39
  %56 = icmp eq ptr %54, null
  br i1 %56, label %57, label %58

57:                                               ; preds = %52
  tail call void (ptr, i32, ptr, ptr, ptr, ...) @IDAProcessError(ptr noundef null, i32 noundef -4, ptr noundef nonnull @.str, ptr noundef nonnull @.str.1, ptr noundef nonnull @.str.4) #8
  tail call void @N_VDestroy(ptr noundef nonnull %42) #8
  tail call void @N_VDestroy(ptr noundef nonnull %48) #8
  tail call void @free(ptr noundef nonnull %24) #8
  br label %69

58:                                               ; preds = %52
  tail call void @N_VConst(double noundef 1.000000e+00, ptr noundef nonnull %42) #8
  %59 = tail call double @N_VDotProd(ptr noundef nonnull %42, ptr noundef nonnull %42) #8
  %60 = tail call double @SUNRsqrt(double noundef %59) #8
  %61 = getelementptr inbounds nuw i8, ptr %24, i64 8
  store double %60, ptr %61, align 8, !tbaa !40
  %62 = load ptr, ptr %6, align 8, !tbaa !3
  %63 = tail call ptr @SptfqmrMalloc(i32 noundef %29, ptr noundef %62) #8
  %64 = icmp eq ptr %63, null
  br i1 %64, label %65, label %66

65:                                               ; preds = %58
  tail call void (ptr, i32, ptr, ptr, ptr, ...) @IDAProcessError(ptr noundef null, i32 noundef -4, ptr noundef nonnull @.str, ptr noundef nonnull @.str.1, ptr noundef nonnull @.str.4) #8
  tail call void @N_VDestroy(ptr noundef nonnull %42) #8
  tail call void @N_VDestroy(ptr noundef nonnull %48) #8
  tail call void @N_VDestroy(ptr noundef nonnull %54) #8
  tail call void @free(ptr noundef nonnull %24) #8
  br label %69

66:                                               ; preds = %58
  %67 = getelementptr inbounds nuw i8, ptr %24, i64 192
  store ptr %63, ptr %67, align 8, !tbaa !41
  %68 = getelementptr inbounds nuw i8, ptr %0, i64 1632
  store ptr %24, ptr %68, align 8, !tbaa !42
  br label %69

69:                                               ; preds = %66, %65, %57, %51, %45, %26, %13, %4
  %.0 = phi i32 [ -1, %4 ], [ -3, %13 ], [ -4, %26 ], [ -4, %45 ], [ -4, %51 ], [ -4, %57 ], [ -4, %65 ], [ 0, %66 ]
  ret i32 %.0
}